target datalayout = "e-m:e-p270:32:32-p271:32:32-p272:64:64-i64:64-i128:128-f80:128-n8:16:32:64-S128"
target triple = "x86_64-pc-linux-gnu"

%struct.Npn_Man_t_ = type { ptr, ptr, i32, i32, i32 }
%struct.Npn_Obj_t_ = type { i64, i32, i32 }

; Function Attrs: nounwind uwtable
define internal ptr @Npn_ManObj(ptr noundef %0, i32 noundef %1) #0 {
  %3 = alloca ptr, align 8
  %4 = alloca i32, align 4
  store ptr %0, ptr %3, align 8
  store i32 %1, ptr %4, align 4
  %5 = load i32, ptr %4, align 4
  %6 = icmp ne i32 %5, 0
  br i1 %6, label %7, label %14

7:                                                ; preds = %2
  %8 = load ptr, ptr %3, align 8
  %9 = getelementptr inbounds %struct.Npn_Man_t_, ptr %8, i32 0, i32 0
  %10 = load ptr, ptr %9, align 8
  %11 = load i32, ptr %4, align 4
  %12 = sext i32 %11 to i64
  %13 = getelementptr inbounds %struct.Npn_Obj_t_, ptr %10, i64 %12
  br label %15

14:                                               ; preds = %2
  br label %15

15:                                               ; preds = %14, %7
  %16 = phi ptr [ %13, %7 ], [ null, %14 ]
  ret ptr %16
}

; Function Attrs: nounwind uwtable
define internal i32 @Npn_ManHash(ptr noundef %0, i64 noundef %1) #0 {
  %3 = alloca ptr, align 8
  %4 = alloca i64, align 8
  %5 = alloca i64, align 8
  store ptr %0, ptr %3, align 8
  store i64 %1, ptr %4, align 8
  %6 = load i64, ptr %4, align 8
  %7 = mul i64 %6, 101
  %8 = load i64, ptr %4, align 8
  %9 = mul i64 %8, 733
  %10 = xor i64 %7, %9
  %11 = load i64, ptr %4, align 8
  %12 = mul i64 %11, 1777
  %13 = xor i64 %10, %12
  store i64 %13, ptr %5, align 8
  %14 = load i64, ptr %5, align 8
  %15 = load ptr, ptr %3, align 8
  %16 = getelementptr inbounds %struct.Npn_Man_t_, ptr %15, i32 0, i32 2
  %17 = load i32, ptr %16, align 8
  %18 = sext i32 %17 to i64
  %19 = urem i64 %14, %18
  %20 = trunc i64 %19 to i32
  ret i32 %20
}

; Function Attrs: nounwind uwtable
define ptr @Npn_ManAdd(ptr noundef %0, i64 noundef %1) #0 {
  %3 = alloca ptr, align 8
  %4 = alloca ptr, align 8
  %5 = alloca i64, align 8
  %6 = alloca ptr, align 8
  %7 = alloca ptr, align 8
  %8 = alloca i32, align 4
  store ptr %0, ptr %4, align 8
  store i64 %1, ptr %5, align 8
  %9 = load ptr, ptr %4, align 8
  %10 = load i64, ptr %5, align 8
  %11 = call i32 @Npn_ManHash(ptr noundef %9, i64 noundef %10)
  store i32 %11, ptr %8, align 4
  %12 = load ptr, ptr %4, align 8
  %13 = getelementptr inbounds %struct.Npn_Man_t_, ptr %12, i32 0, i32 4
  %14 = load i32, ptr %13, align 8
  %15 = load ptr, ptr %4, align 8
  %16 = getelementptr inbounds %struct.Npn_Man_t_, ptr %15, i32 0, i32 3
  %17 = load i32, ptr %16, align 4
  %18 = icmp eq i32 %14, %17
  br i1 %18, label %19, label %49

19:                                               ; preds = %2
  %20 = load ptr, ptr %4, align 8
  %21 = getelementptr inbounds %struct.Npn_Man_t_, ptr %20, i32 0, i32 3
  %22 = load i32, ptr %21, align 4
  %23 = mul nsw i32 %22, 2
  store i32 %23, ptr %21, align 4
  %24 = load ptr, ptr %4, align 8
  %25 = getelementptr inbounds %struct.Npn_Man_t_, ptr %24, i32 0, i32 0
  %26 = load ptr, ptr %25, align 8
  %27 = icmp ne ptr %26, null
  br i1 %27, label %28, label %38

28:                                               ; preds = %19
  %29 = load ptr, ptr %4, align 8
  %30 = getelementptr inbounds %struct.Npn_Man_t_, ptr %29, i32 0, i32 0
  %31 = load ptr, ptr %30, align 8
  %32 = load ptr, ptr %4, align 8
  %33 = getelementptr inbounds %struct.Npn_Man_t_, ptr %32, i32 0, i32 3
  %34 = load i32, ptr %33, align 4
  %35 = sext i32 %34 to i64
  %36 = mul i64 16, %35
  %37 = call ptr @realloc(ptr noundef %31, i64 noundef %36) #12
  br label %45

38:                                               ; preds = %19
  %39 = load ptr, ptr %4, align 8
  %40 = getelementptr inbounds %struct.Npn_Man_t_, ptr %39, i32 0, i32 3
  %41 = load i32, ptr %40, align 4
  %42 = sext i32 %41 to i64
  %43 = mul i64 16, %42
  %44 = call noalias ptr @malloc(i64 noundef %43) #10
  br label %45

45:                                               ; preds = %38, %28
  %46 = phi ptr [ %37, %28 ], [ %44, %38 ]
  %47 = load ptr, ptr %4, align 8
  %48 = getelementptr inbounds %struct.Npn_Man_t_, ptr %47, i32 0, i32 0
  store ptr %46, ptr %48, align 8
  br label %49

49:                                               ; preds = %45, %2
  %50 = load ptr, ptr %4, align 8
  %51 = load ptr, ptr %4, align 8
  %52 = getelementptr inbounds %struct.Npn_Man_t_, ptr %51, i32 0, i32 1
  %53 = load ptr, ptr %52, align 8
  %54 = load i32, ptr %8, align 4
  %55 = sext i32 %54 to i64
  %56 = getelementptr inbounds i32, ptr %53, i64 %55
  %57 = load i32, ptr %56, align 4
  %58 = call ptr @Npn_ManObj(ptr noundef %50, i32 noundef %57)
  store ptr %58, ptr %6, align 8
  %59 = load ptr, ptr %4, align 8
  %60 = getelementptr inbounds %struct.Npn_Man_t_, ptr %59, i32 0, i32 1
  %61 = load ptr, ptr %60, align 8
  %62 = load i32, ptr %8, align 4
  %63 = sext i32 %62 to i64
  %64 = getelementptr inbounds i32, ptr %61, i64 %63
  store ptr %64, ptr %7, align 8
  br label %65

65:                                               ; preds = %81, %49
  %66 = load ptr, ptr %6, align 8
  %67 = icmp ne ptr %66, null
  br i1 %67, label %68, label %89

68:                                               ; preds = %65
  %69 = load ptr, ptr %6, align 8
  %70 = getelementptr inbounds %struct.Npn_Obj_t_, ptr %69, i32 0, i32 0
  %71 = load i64, ptr %70, align 8
  %72 = load i64, ptr %5, align 8
  %73 = icmp eq i64 %71, %72
  br i1 %73, label %74, label %80

74:                                               ; preds = %68
  %75 = load ptr, ptr %6, align 8
  %76 = getelementptr inbounds %struct.Npn_Obj_t_, ptr %75, i32 0, i32 1
  %77 = load i32, ptr %76, align 8
  %78 = add nsw i32 %77, 1
  store i32 %78, ptr %76, align 8
  %79 = load ptr, ptr %6, align 8
  store ptr %79, ptr %3, align 8
  br label %119

80:                                               ; preds = %68
  br label %81

81:                                               ; preds = %80
  %82 = load ptr, ptr %6, align 8
  %83 = getelementptr inbounds %struct.Npn_Obj_t_, ptr %82, i32 0, i32 2
  store ptr %83, ptr %7, align 8
  %84 = load ptr, ptr %4, align 8
  %85 = load ptr, ptr %6, align 8
  %86 = getelementptr inbounds %struct.Npn_Obj_t_, ptr %85, i32 0, i32 2
  %87 = load i32, ptr %86, align 4
  %88 = call ptr @Npn_ManObj(ptr noundef %84, i32 noundef %87)
  store ptr %88, ptr %6, align 8
  br label %65, !llvm.loop !10

89:                                               ; preds = %65
  %90 = load ptr, ptr %4, align 8
  %91 = getelementptr inbounds %struct.Npn_Man_t_, ptr %90, i32 0, i32 4
  %92 = load i32, ptr %91, align 8
  %93 = load ptr, ptr %7, align 8
  store i32 %92, ptr %93, align 4
  %94 = load ptr, ptr %4, align 8
  %95 = load ptr, ptr %4, align 8
  %96 = getelementptr inbounds %struct.Npn_Man_t_, ptr %95, i32 0, i32 4
  %97 = load i32, ptr %96, align 8
  %98 = add nsw i32 %97, 1
  store i32 %98, ptr %96, align 8
  %99 = call ptr @Npn_ManObj(ptr noundef %94, i32 noundef %97)
  store ptr %99, ptr %6, align 8
  %100 = load i64, ptr %5, align 8
  %101 = load ptr, ptr %6, align 8
  %102 = getelementptr inbounds %struct.Npn_Obj_t_, ptr %101, i32 0, i32 0
  store i64 %100, ptr %102, align 8
  %103 = load ptr, ptr %6, align 8
  %104 = getelementptr inbounds %struct.Npn_Obj_t_, ptr %103, i32 0, i32 1
  store i32 1, ptr %104, align 8
  %105 = load ptr, ptr %6, align 8
  %106 = getelementptr inbounds %struct.Npn_Obj_t_, ptr %105, i32 0, i32 2
  store i32 0, ptr %106, align 4
  %107 = load ptr, ptr %4, align 8
  %108 = getelementptr inbounds %struct.Npn_Man_t_, ptr %107, i32 0, i32 4
  %109 = load i32, ptr %108, align 8
  %110 = load ptr, ptr %4, align 8
  %111 = getelementptr inbounds %struct.Npn_Man_t_, ptr %110, i32 0, i32 2
  %112 = load i32, ptr %111, align 8
  %113 = mul nsw i32 3, %112
  %114 = icmp sgt i32 %109, %113
  br i1 %114, label %115, label %117

115:                                              ; preds = %89
  %116 = load ptr, ptr %4, align 8
  call void @Npn_ManResize(ptr noundef %116)
  br label %117

117:                                              ; preds = %115, %89
  %118 = load ptr, ptr %6, align 8
  store ptr %118, ptr %3, align 8
  br label %119

119:                                              ; preds = %117, %74
  %120 = load ptr, ptr %3, align 8
  ret ptr %120
}