; Function Attrs: nounwind uwtable
define noundef ptr @Npn_ManAdd(ptr noundef captures(none) %0, i64 noundef %1) local_unnamed_addr #0 {
  %3 = getelementptr i8, ptr %0, i64 16
  %.val = load i32, ptr %3, align 8
  %4 = mul i64 %1, 101
  %5 = mul i64 %1, 733
  %6 = xor i64 %4, %5
  %7 = mul i64 %1, 1777
  %8 = xor i64 %6, %7
  %9 = sext i32 %.val to i64
  %10 = urem i64 %8, %9
  %11 = getelementptr inbounds nuw i8, ptr %0, i64 24
  %12 = load i32, ptr %11, align 8
  %13 = getelementptr inbounds nuw i8, ptr %0, i64 20
  %14 = load i32, ptr %13, align 4
  %15 = icmp eq i32 %12, %14
  br i1 %15, label %16, label %27

16:                                               ; preds = %2
  %17 = shl nsw i32 %12, 1
  store i32 %17, ptr %13, align 4
  %18 = load ptr, ptr %0, align 8
  %.not = icmp eq ptr %18, null
  %19 = sext i32 %17 to i64
  %20 = shl nsw i64 %19, 4
  br i1 %.not, label %23, label %21

21:                                               ; preds = %16
  %22 = tail call ptr @realloc(ptr noundef nonnull %18, i64 noundef %20) #24
  br label %25

23:                                               ; preds = %16
  %24 = tail call noalias ptr @malloc(i64 noundef %20) #21
  br label %25

25:                                               ; preds = %23, %21
  %26 = phi ptr [ %22, %21 ], [ %24, %23 ]
  store ptr %26, ptr %0, align 8
  br label %27

27:                                               ; preds = %25, %2
  %28 = getelementptr inbounds nuw i8, ptr %0, i64 8
  %29 = load ptr, ptr %28, align 8
  %sext = shl i64 %10, 32
  %30 = ashr exact i64 %sext, 30
  %31 = getelementptr inbounds i8, ptr %29, i64 %30
  %32 = load i32, ptr %31, align 4
  %.not.i = icmp eq i32 %32, 0
  br i1 %.not.i, label %Npn_ManObj.exit43, label %Npn_ManObj.exit

Npn_ManObj.exit:                                  ; preds = %27
  %33 = load ptr, ptr %0, align 8
  %34 = sext i32 %32 to i64
  %35 = getelementptr inbounds %struct.Npn_Obj_t_, ptr %33, i64 %34
  %36 = load i64, ptr %35, align 8
  %37 = icmp eq i64 %36, %1
  br i1 %37, label %.lr.ph._crit_edge, label %.lr.ph55

.lr.ph._crit_edge:                                ; preds = %Npn_ManObj.exit41, %Npn_ManObj.exit
  %.03647.lcssa = phi ptr [ %35, %Npn_ManObj.exit ], [ %45, %Npn_ManObj.exit41 ]
  %38 = getelementptr inbounds nuw i8, ptr %.03647.lcssa, i64 8
  %39 = load i32, ptr %38, align 8
  %40 = add nsw i32 %39, 1
  store i32 %40, ptr %38, align 8
  br label %61

.lr.ph55:                                         ; preds = %Npn_ManObj.exit, %Npn_ManObj.exit41
  %.0364754 = phi ptr [ %45, %Npn_ManObj.exit41 ], [ %35, %Npn_ManObj.exit ]
  %41 = getelementptr inbounds nuw i8, ptr %.0364754, i64 12
  %42 = load i32, ptr %41, align 4
  %.not.i40 = icmp eq i32 %42, 0
  br i1 %.not.i40, label %Npn_ManObj.exit43.loopexit, label %Npn_ManObj.exit41

Npn_ManObj.exit41:                                ; preds = %.lr.ph55
  %43 = load ptr, ptr %0, align 8
  %44 = sext i32 %42 to i64
  %45 = getelementptr inbounds %struct.Npn_Obj_t_, ptr %43, i64 %44
  %46 = load i64, ptr %45, align 8
  %47 = icmp eq i64 %46, %1
  br i1 %47, label %.lr.ph._crit_edge, label %.lr.ph55, !llvm.loop !10

Npn_ManObj.exit43.loopexit:                       ; preds = %.lr.ph55
  %48 = getelementptr inbounds nuw i8, ptr %.0364754, i64 12
  br label %Npn_ManObj.exit43

Npn_ManObj.exit43:                                ; preds = %Npn_ManObj.exit43.loopexit, %27
  %.035.lcssa = phi ptr [ %31, %27 ], [ %48, %Npn_ManObj.exit43.loopexit ]
  %49 = load i32, ptr %11, align 8
  store i32 %49, ptr %.035.lcssa, align 4
  %50 = add nsw i32 %49, 1
  store i32 %50, ptr %11, align 8
  %.not.i42 = icmp ne i32 %49, 0
  tail call void @llvm.assume(i1 %.not.i42)
  %51 = load ptr, ptr %0, align 8
  %52 = sext i32 %49 to i64
  %53 = getelementptr inbounds %struct.Npn_Obj_t_, ptr %51, i64 %52
  store i64 %1, ptr %53, align 8
  %54 = getelementptr inbounds nuw i8, ptr %53, i64 8
  store i32 1, ptr %54, align 8
  %55 = getelementptr inbounds nuw i8, ptr %53, i64 12
  store i32 0, ptr %55, align 4
  %56 = load i32, ptr %11, align 8
  %57 = load i32, ptr %3, align 8
  %58 = mul nsw i32 %57, 3
  %59 = icmp sgt i32 %56, %58
  br i1 %59, label %60, label %61

60:                                               ; preds = %Npn_ManObj.exit43
  tail call void @Npn_ManResize(ptr noundef nonnull %0)
  br label %61

61:                                               ; preds = %Npn_ManObj.exit43, %60, %.lr.ph._crit_edge
  %.0 = phi ptr [ %.03647.lcssa, %.lr.ph._crit_edge ], [ %53, %60 ], [ %53, %Npn_ManObj.exit43 ]
  ret ptr %.0
}